; Function Attrs: nounwind uwtable
define ptr @l_Lake_InputDirConfig_path___proj___elambda__2(ptr readnone captures(none) %0, ptr noundef %1, ptr noundef %2) local_unnamed_addr #1 {
  %.val = load i32, ptr %2, align 4, !tbaa !8
  %4 = icmp eq i32 %.val, 1
  %5 = getelementptr inbounds nuw i8, ptr %2, i64 8
  %6 = load ptr, ptr %5, align 8, !tbaa !4
  br i1 %4, label %7, label %9

7:                                                ; preds = %3
  %8 = tail call ptr @lean_apply_1(ptr noundef %1, ptr noundef %6) #7
  store ptr %8, ptr %5, align 8, !tbaa !4
  br label %47

9:                                                ; preds = %3
  %10 = getelementptr inbounds nuw i8, ptr %2, i64 24
  %11 = load i8, ptr %10, align 1, !tbaa !11
  %12 = getelementptr inbounds nuw i8, ptr %2, i64 16
  %13 = load ptr, ptr %12, align 8, !tbaa !4
  %14 = ptrtoint ptr %13 to i64
  %15 = and i64 %14, 1
  %.not = icmp eq i64 %15, 0
  br i1 %.not, label %16, label %lean_inc.exit23

16:                                               ; preds = %9
  %.val.i = load i32, ptr %13, align 4, !tbaa !8
  %17 = icmp sgt i32 %.val.i, 0
  br i1 %17, label %18, label %20, !prof !12

18:                                               ; preds = %16
  %19 = add nuw i32 %.val.i, 1
  store i32 %19, ptr %13, align 4, !tbaa !8
  br label %lean_inc.exit23

20:                                               ; preds = %16
  %.not.i24 = icmp eq i32 %.val.i, 0
  br i1 %.not.i24, label %lean_inc.exit23, label %21

21:                                               ; preds = %20
  tail call void @lean_inc_ref_cold(ptr noundef nonnull %13) #7
  br label %lean_inc.exit23

lean_inc.exit23:                                  ; preds = %21, %20, %18, %9
  %22 = ptrtoint ptr %6 to i64
  %23 = and i64 %22, 1
  %.not28 = icmp eq i64 %23, 0
  br i1 %.not28, label %24, label %lean_inc.exit

24:                                               ; preds = %lean_inc.exit23
  %.val.i25 = load i32, ptr %6, align 4, !tbaa !8
  %25 = icmp sgt i32 %.val.i25, 0
  br i1 %25, label %26, label %28, !prof !12

26:                                               ; preds = %24
  %27 = add nuw i32 %.val.i25, 1
  store i32 %27, ptr %6, align 4, !tbaa !8
  br label %lean_inc.exit

28:                                               ; preds = %24
  %.not.i26 = icmp eq i32 %.val.i25, 0
  br i1 %.not.i26, label %lean_inc.exit, label %29

29:                                               ; preds = %28
  tail call void @lean_inc_ref_cold(ptr noundef nonnull %6) #7
  br label %lean_inc.exit

lean_inc.exit:                                    ; preds = %29, %28, %26, %lean_inc.exit23
  %30 = ptrtoint ptr %2 to i64
  %31 = and i64 %30, 1
  %.not29 = icmp eq i64 %31, 0
  br i1 %.not29, label %32, label %lean_dec.exit

32:                                               ; preds = %lean_inc.exit
  %33 = load i32, ptr %2, align 4, !tbaa !8
  %34 = icmp sgt i32 %33, 1
  br i1 %34, label %35, label %37, !prof !12

35:                                               ; preds = %32
  %36 = add nsw i32 %33, -1
  store i32 %36, ptr %2, align 4, !tbaa !8
  br label %lean_dec.exit

37:                                               ; preds = %32
  %.not.i = icmp eq i32 %33, 0
  br i1 %.not.i, label %lean_dec.exit, label %38

38:                                               ; preds = %37
  tail call void @lean_dec_ref_cold(ptr noundef nonnull %2) #7
  br label %lean_dec.exit

lean_dec.exit:                                    ; preds = %38, %37, %35, %lean_inc.exit
  %39 = tail call ptr @lean_apply_1(ptr noundef %1, ptr noundef %6) #7
  tail call void @lean_inc_heartbeat() #7
  %40 = tail call noalias ptr @mi_malloc_small(i64 noundef 32) #7
  %41 = icmp eq ptr %40, null
  br i1 %41, label %42, label %lean_alloc_ctor.exit

42:                                               ; preds = %lean_dec.exit
  tail call void @lean_internal_panic_out_of_memory() #8
  unreachable

lean_alloc_ctor.exit:                             ; preds = %lean_dec.exit
  %43 = getelementptr inbounds nuw i8, ptr %40, i64 4
  %44 = getelementptr inbounds nuw i8, ptr %40, i64 24
  store i64 0, ptr %44, align 8, !tbaa !13
  store i32 1, ptr %40, align 4, !tbaa !8
  store i32 131104, ptr %43, align 4
  %45 = getelementptr inbounds nuw i8, ptr %40, i64 8
  store ptr %39, ptr %45, align 8, !tbaa !4
  %46 = getelementptr inbounds nuw i8, ptr %40, i64 16
  store ptr %13, ptr %46, align 8, !tbaa !4
  store i8 %11, ptr %44, align 1, !tbaa !11
  br label %47

47:                                               ; preds = %lean_alloc_ctor.exit, %7
  %.0 = phi ptr [ %2, %7 ], [ %40, %lean_alloc_ctor.exit ]
  ret ptr %.0
}